target datalayout = "e-m:e-p270:32:32-p271:32:32-p272:64:64-i64:64-i128:128-f80:128-n8:16:32:64-S128"
target triple = "x86_64-pc-linux-gnu"

%struct.GVecGen2s = type { ptr, ptr, ptr, ptr, ptr, i32, i8, i8, i8 }

; Function Attrs: nounwind sspstrong uwtable
define dso_local void @tcg_gen_gvec_muls(i32 noundef %0, i32 noundef %1, i32 noundef %2, ptr noundef %3, i32 noundef %4, i32 noundef %5) #0 {
  %7 = alloca i32, align 4
  %8 = alloca i32, align 4
  %9 = alloca i32, align 4
  %10 = alloca ptr, align 8
  %11 = alloca i32, align 4
  %12 = alloca i32, align 4
  store i32 %0, ptr %7, align 4
  store i32 %1, ptr %8, align 4
  store i32 %2, ptr %9, align 4
  store ptr %3, ptr %10, align 8
  store i32 %4, ptr %11, align 4
  store i32 %5, ptr %12, align 4
  br label %13

13:                                               ; preds = %6
  %14 = load i32, ptr %7, align 4
  %15 = icmp ule i32 %14, 3
  br i1 %15, label %17, label %16

16:                                               ; preds = %13
  unreachable

17:                                               ; preds = %13
  br label %18

18:                                               ; preds = %17
  %19 = load i32, ptr %8, align 4
  %20 = load i32, ptr %9, align 4
  %21 = load i32, ptr %11, align 4
  %22 = load i32, ptr %12, align 4
  %23 = load ptr, ptr %10, align 8
  %24 = load i32, ptr %7, align 4
  %25 = zext i32 %24 to i64
  %26 = getelementptr inbounds nuw [4 x %struct.GVecGen2s], ptr @tcg_gen_gvec_muls.g, i64 0, i64 %25
  call void @tcg_gen_gvec_2s(i32 noundef %19, i32 noundef %20, i32 noundef %21, i32 noundef %22, ptr noundef %23, ptr noundef %26)
  ret void
}

; Function Attrs: nounwind sspstrong uwtable
define dso_local void @tcg_gen_gvec_muli(i32 noundef %0, i32 noundef %1, i32 noundef %2, i64 noundef %3, i32 noundef %4, i32 noundef %5) #0 {
  %7 = alloca i32, align 4
  %8 = alloca i32, align 4
  %9 = alloca i32, align 4
  %10 = alloca i64, align 8
  %11 = alloca i32, align 4
  %12 = alloca i32, align 4
  %13 = alloca ptr, align 8
  store i32 %0, ptr %7, align 4
  store i32 %1, ptr %8, align 4
  store i32 %2, ptr %9, align 4
  store i64 %3, ptr %10, align 8
  store i32 %4, ptr %11, align 4
  store i32 %5, ptr %12, align 4
  call void @llvm.lifetime.start.p0(i64 8, ptr %13) #10
  %14 = load i64, ptr %10, align 8
  %15 = call ptr @tcg_constant_i64(i64 noundef %14)
  store ptr %15, ptr %13, align 8
  %16 = load i32, ptr %7, align 4
  %17 = load i32, ptr %8, align 4
  %18 = load i32, ptr %9, align 4
  %19 = load ptr, ptr %13, align 8
  %20 = load i32, ptr %11, align 4
  %21 = load i32, ptr %12, align 4
  call void @tcg_gen_gvec_muls(i32 noundef %16, i32 noundef %17, i32 noundef %18, ptr noundef %19, i32 noundef %20, i32 noundef %21)
  call void @llvm.lifetime.end.p0(i64 8, ptr %13) #10
  ret void
}